	.file	"hello.c"
	.text
	.section	.rodata.str1.8,"aMS",@progbits,1
	.align 8
.LC0:
	.string	"\347\224\250\346\263\225: Hello \345\255\246\345\217\267 \345\247\223\345\220\215 \346\211\213\346\234\272\345\217\267 \347\247\222\346\225\260\357\274\201"
	.section	.rodata.str1.1,"aMS",@progbits,1
.LC1:
	.string	"Hello %s %s %s\n"
	.text
	.globl	main
	.type	main, @function
main:
.LFB50:
	.cfi_startproc
	endbr64
	pushq	%rbp
	.cfi_def_cfa_offset 16
	.cfi_offset 6, -16
	pushq	%rbx
	.cfi_def_cfa_offset 24
	.cfi_offset 3, -24
	subq	$8, %rsp
	.cfi_def_cfa_offset 32
	cmpl	$5, %edi
	jne	.L6
	movq	%rsi, %rbx
	movl	$0, %ebp
.L2:
	cmpl	$9, %ebp
	jg	.L7
	movq	16(%rbx), %rcx
	movq	8(%rbx), %rdx
	movq	24(%rbx), %r8
	movl	$.LC1, %esi
	movl	$1, %edi
	movl	$0, %eax
	call	__printf_chk
	movq	32(%rbx), %rdi
	movl	$10, %edx
	movl	$0, %esi
	call	strtol
	movq	%rax, %rdi
	call	sleep
	addl	$1, %ebp
	jmp	.L2
.L6:
	movl	$.LC0, %edi
	call	puts
	movl	$1, %edi
	call	exit
.L7:
	movq	stdin(%rip), %rdi
	call	getc
	movl	$0, %eax
	addq	$8, %rsp
	.cfi_def_cfa_offset 24
	popq	%rbx
	.cfi_def_cfa_offset 16
	popq	%rbp
	.cfi_def_cfa_offset 8
	ret
	.cfi_endproc
.LFE50:
	.size	main, .-main
	.ident	"GCC: (Ubuntu 9.4.0-1ubuntu1~20.04.2) 9.4.0"
	.section	.note.GNU-stack,"",@progbits
	.section	.note.gnu.property,"a"
	.align 8
	.long	 1f - 0f
	.long	 4f - 1f
	.long	 5
0:
	.string	 "GNU"
1:
	.align 8
	.long	 0xc0000002
	.long	 3f - 2f
2:
	.long	 0x3
3:
	.align 8
4:
